	.file	"Q2.cpp"
	.text
	.local	_ZStL8__ioinit
	.comm	_ZStL8__ioinit,1,1
	.section	.text._ZNKSt6chrono8durationIlSt5ratioILl1ELl1000000000EEE5countEv,"axG",@progbits,_ZNKSt6chrono8durationIlSt5ratioILl1ELl1000000000EEE5countEv,comdat
	.align 2
	.weak	_ZNKSt6chrono8durationIlSt5ratioILl1ELl1000000000EEE5countEv
	.type	_ZNKSt6chrono8durationIlSt5ratioILl1ELl1000000000EEE5countEv, @function
_ZNKSt6chrono8durationIlSt5ratioILl1ELl1000000000EEE5countEv:
.LFB1988:
	.cfi_startproc
	pushq	%rbp
	.cfi_def_cfa_offset 16
	.cfi_offset 6, -16
	movq	%rsp, %rbp
	.cfi_def_cfa_register 6
	movq	%rdi, -8(%rbp)
	movq	-8(%rbp), %rax
	movq	(%rax), %rax
	popq	%rbp
	.cfi_def_cfa 7, 8
	ret
	.cfi_endproc
.LFE1988:
	.size	_ZNKSt6chrono8durationIlSt5ratioILl1ELl1000000000EEE5countEv, .-_ZNKSt6chrono8durationIlSt5ratioILl1ELl1000000000EEE5countEv
	.section	.text._ZNSt6chrono8durationIlSt5ratioILl1ELl1000000000EEEC1IlvEERKT_,"axG",@progbits,_ZNSt6chrono8durationIlSt5ratioILl1ELl1000000000EEEC1IlvEERKT_,comdat
	.align 2
	.weak	_ZNSt6chrono8durationIlSt5ratioILl1ELl1000000000EEEC1IlvEERKT_
	.type	_ZNSt6chrono8durationIlSt5ratioILl1ELl1000000000EEEC1IlvEERKT_, @function
_ZNSt6chrono8durationIlSt5ratioILl1ELl1000000000EEEC1IlvEERKT_:
.LFB1993:
	.cfi_startproc
	pushq	%rbp
	.cfi_def_cfa_offset 16
	.cfi_offset 6, -16
	movq	%rsp, %rbp
	.cfi_def_cfa_register 6
	movq	%rdi, -8(%rbp)
	movq	%rsi, -16(%rbp)
	movq	-16(%rbp), %rax
	movq	(%rax), %rdx
	movq	-8(%rbp), %rax
	movq	%rdx, (%rax)
	nop
	popq	%rbp
	.cfi_def_cfa 7, 8
	ret
	.cfi_endproc
.LFE1993:
	.size	_ZNSt6chrono8durationIlSt5ratioILl1ELl1000000000EEEC1IlvEERKT_, .-_ZNSt6chrono8durationIlSt5ratioILl1ELl1000000000EEEC1IlvEERKT_
	.section	.rodata
	.align 4
	.type	_ZL1N, @object
	.size	_ZL1N, 4
_ZL1N:
	.long	1024
	.text
	.globl	_Z13matrix_vectorPA1024_KfPS_Pfi
	.type	_Z13matrix_vectorPA1024_KfPS_Pfi, @function
_Z13matrix_vectorPA1024_KfPS_Pfi:
.LFB6391:
	.cfi_startproc
	pushq	%rbp
	.cfi_def_cfa_offset 16
	.cfi_offset 6, -16
	movq	%rsp, %rbp
	.cfi_def_cfa_register 6
	movq	%rdi, -24(%rbp)
	movq	%rsi, -32(%rbp)
	movq	%rdx, -40(%rbp)
	movl	%ecx, -44(%rbp)
	movl	$0, -4(%rbp)
	jmp	.L5
.L8:
	movl	$0, -8(%rbp)
	jmp	.L6
.L7:
	movl	-4(%rbp), %eax
	cltq
	leaq	0(,%rax,4), %rdx
	movq	-40(%rbp), %rax
	addq	%rdx, %rax
	vmovss	(%rax), %xmm1
	movl	-4(%rbp), %eax
	cltq
	salq	$12, %rax
	movq	%rax, %rdx
	movq	-24(%rbp), %rax
	addq	%rax, %rdx
	movl	-8(%rbp), %eax
	cltq
	vmovss	(%rdx,%rax,4), %xmm2
	movl	-8(%rbp), %eax
	cltq
	leaq	0(,%rax,4), %rdx
	movq	-32(%rbp), %rax
	addq	%rdx, %rax
	vmovss	(%rax), %xmm0
	vmulss	%xmm0, %xmm2, %xmm0
	movl	-4(%rbp), %eax
	cltq
	leaq	0(,%rax,4), %rdx
	movq	-40(%rbp), %rax
	addq	%rdx, %rax
	vaddss	%xmm0, %xmm1, %xmm0
	vmovss	%xmm0, (%rax)
	addl	$1, -8(%rbp)
.L6:
	movl	-8(%rbp), %eax
	cmpl	-44(%rbp), %eax
	jl	.L7
	addl	$1, -4(%rbp)
.L5:
	movl	-4(%rbp), %eax
	cmpl	-44(%rbp), %eax
	jl	.L8
	nop
	nop
	popq	%rbp
	.cfi_def_cfa 7, 8
	ret
	.cfi_endproc
.LFE6391:
	.size	_Z13matrix_vectorPA1024_KfPS_Pfi, .-_Z13matrix_vectorPA1024_KfPS_Pfi
	.globl	_Z21matrix_vector_avx512fPA1024_KfPS_Pfi
	.type	_Z21matrix_vector_avx512fPA1024_KfPS_Pfi, @function
_Z21matrix_vector_avx512fPA1024_KfPS_Pfi:
.LFB6392:
	.cfi_startproc
	pushq	%rbp
	.cfi_def_cfa_offset 16
	.cfi_offset 6, -16
	movq	%rsp, %rbp
	.cfi_def_cfa_register 6
	andq	$-64, %rsp
	subq	$840, %rsp
	movq	%rdi, -48(%rsp)
	movq	%rsi, -56(%rsp)
	movq	%rdx, -64(%rsp)
	movl	%ecx, -68(%rsp)
	movl	$0, 836(%rsp)
	jmp	.L10
.L22:
	movq	$0, 824(%rsp)
	vxorps	%xmm0, %xmm0, %xmm0
	vmovaps	%zmm0, 712(%rsp)
	jmp	.L12
.L16:
	movl	836(%rsp), %eax
	cltq
	salq	$12, %rax
	movq	%rax, %rdx
	movq	-48(%rsp), %rax
	addq	%rax, %rdx
	movq	824(%rsp), %rax
	salq	$2, %rax
	addq	%rdx, %rax
	movq	%rax, 312(%rsp)
	movq	312(%rsp), %rax
	vmovups	(%rax), %zmm0
	vmovaps	%zmm0, 584(%rsp)
	movq	824(%rsp), %rax
	leaq	0(,%rax,4), %rdx
	movq	-56(%rsp), %rax
	addq	%rdx, %rax
	movq	%rax, 320(%rsp)
	movq	320(%rsp), %rax
	vmovups	(%rax), %zmm0
	vmovaps	%zmm0, 520(%rsp)
	vmovaps	584(%rsp), %zmm0
	vmovaps	%zmm0, 456(%rsp)
	vmovaps	520(%rsp), %zmm0
	vmovaps	%zmm0, 392(%rsp)
	vmovaps	712(%rsp), %zmm0
	vmovaps	%zmm0, 328(%rsp)
	vmovaps	456(%rsp), %zmm0
	vmovaps	392(%rsp), %zmm2
	vmovaps	328(%rsp), %zmm1
	movl	$-1, %eax
	kmovw	%eax, %k1
	vfmadd132ps	%zmm2, %zmm1, %zmm0{%k1}
	nop
	vmovaps	%zmm0, 712(%rsp)
	addq	$16, 824(%rsp)
.L12:
	movq	824(%rsp), %rax
	leaq	16(%rax), %rdx
	movl	-68(%rsp), %eax
	cltq
	cmpq	%rax, %rdx
	jbe	.L16
	vmovaps	712(%rsp), %zmm0
	vmovaps	%zmm0, 200(%rsp)
	vmovapd	168(%rsp), %ymm1
	vmovapd	200(%rsp), %zmm0
	movl	$-1, %eax
	kmovw	%eax, %k2
	vextractf64x4	$0x1, %zmm0, %ymm1{%k2}
	vmovapd	%ymm1, 136(%rsp)
	vmovapd	104(%rsp), %ymm1
	vmovapd	200(%rsp), %zmm0
	movl	$-1, %eax
	kmovw	%eax, %k3
	vextractf64x4	$0x0, %zmm0, %ymm1{%k3}
	vmovapd	%ymm1, 72(%rsp)
	vmovaps	136(%rsp), %ymm0
	vaddps	72(%rsp), %ymm0, %ymm0
	vmovaps	%ymm0, 40(%rsp)
	vmovaps	40(%rsp), %ymm0
	vextractf128	$0x1, %ymm0, %xmm0
	vmovaps	%xmm0, 24(%rsp)
	vmovaps	40(%rsp), %ymm0
	vmovaps	%xmm0, 8(%rsp)
	vmovaps	24(%rsp), %xmm0
	vaddps	8(%rsp), %xmm0, %xmm0
	vmovaps	%xmm0, -8(%rsp)
	vmovaps	-8(%rsp), %xmm0
	vpermilps	$78, %xmm0, %xmm0
	vmovaps	%xmm0, -24(%rsp)
	vmovaps	-8(%rsp), %xmm0
	vaddps	-24(%rsp), %xmm0, %xmm0
	vmovaps	%xmm0, -40(%rsp)
	vmovss	-40(%rsp), %xmm1
	vmovss	-36(%rsp), %xmm0
	vaddss	%xmm0, %xmm1, %xmm0
	vmovss	%xmm0, 708(%rsp)
	jmp	.L20
.L21:
	movl	836(%rsp), %eax
	cltq
	salq	$12, %rax
	movq	%rax, %rdx
	movq	-48(%rsp), %rax
	addq	%rax, %rdx
	movq	824(%rsp), %rax
	vmovss	(%rdx,%rax,4), %xmm1
	movq	824(%rsp), %rax
	leaq	0(,%rax,4), %rdx
	movq	-56(%rsp), %rax
	addq	%rdx, %rax
	vmovss	(%rax), %xmm0
	vmulss	%xmm0, %xmm1, %xmm0
	vmovss	708(%rsp), %xmm1
	vaddss	%xmm0, %xmm1, %xmm0
	vmovss	%xmm0, 708(%rsp)
	addq	$1, 824(%rsp)
.L20:
	movl	-68(%rsp), %eax
	cltq
	cmpq	%rax, 824(%rsp)
	jb	.L21
	movl	836(%rsp), %eax
	cltq
	leaq	0(,%rax,4), %rdx
	movq	-64(%rsp), %rax
	addq	%rdx, %rax
	vmovss	708(%rsp), %xmm0
	vmovss	%xmm0, (%rax)
	addl	$1, 836(%rsp)
.L10:
	movl	836(%rsp), %eax
	cmpl	-68(%rsp), %eax
	jl	.L22
	nop
	nop
	leave
	.cfi_def_cfa 7, 8
	ret
	.cfi_endproc
.LFE6392:
	.size	_Z21matrix_vector_avx512fPA1024_KfPS_Pfi, .-_Z21matrix_vector_avx512fPA1024_KfPS_Pfi
	.section	.text._ZNSt6chrono13duration_castINS_8durationIlSt5ratioILl1ELl1000000000EEEElS3_EENSt9enable_ifIXsrNS_13__is_durationIT_EE5valueES7_E4typeERKNS1_IT0_T1_EE,"axG",@progbits,_ZNSt6chrono13duration_castINS_8durationIlSt5ratioILl1ELl1000000000EEEElS3_EENSt9enable_ifIXsrNS_13__is_durationIT_EE5valueES7_E4typeERKNS1_IT0_T1_EE,comdat
	.weak	_ZNSt6chrono13duration_castINS_8durationIlSt5ratioILl1ELl1000000000EEEElS3_EENSt9enable_ifIXsrNS_13__is_durationIT_EE5valueES7_E4typeERKNS1_IT0_T1_EE
	.type	_ZNSt6chrono13duration_castINS_8durationIlSt5ratioILl1ELl1000000000EEEElS3_EENSt9enable_ifIXsrNS_13__is_durationIT_EE5valueES7_E4typeERKNS1_IT0_T1_EE, @function
_ZNSt6chrono13duration_castINS_8durationIlSt5ratioILl1ELl1000000000EEEElS3_EENSt9enable_ifIXsrNS_13__is_durationIT_EE5valueES7_E4typeERKNS1_IT0_T1_EE:
.LFB6394:
	.cfi_startproc
	pushq	%rbp
	.cfi_def_cfa_offset 16
	.cfi_offset 6, -16
	movq	%rsp, %rbp
	.cfi_def_cfa_register 6
	subq	$16, %rsp
	movq	%rdi, -8(%rbp)
	movq	-8(%rbp), %rax
	movq	%rax, %rdi
	call	_ZNSt6chrono20__duration_cast_implINS_8durationIlSt5ratioILl1ELl1000000000EEEES2_ILl1ELl1EElLb1ELb1EE6__castIlS3_EES4_RKNS1_IT_T0_EE
	leave
	.cfi_def_cfa 7, 8
	ret
	.cfi_endproc
.LFE6394:
	.size	_ZNSt6chrono13duration_castINS_8durationIlSt5ratioILl1ELl1000000000EEEElS3_EENSt9enable_ifIXsrNS_13__is_durationIT_EE5valueES7_E4typeERKNS1_IT0_T1_EE, .-_ZNSt6chrono13duration_castINS_8durationIlSt5ratioILl1ELl1000000000EEEElS3_EENSt9enable_ifIXsrNS_13__is_durationIT_EE5valueES7_E4typeERKNS1_IT0_T1_EE
	.section	.text._ZNSt6chronomiINS_3_V212system_clockENS_8durationIlSt5ratioILl1ELl1000000000EEEES6_EENSt11common_typeIJT0_T1_EE4typeERKNS_10time_pointIT_S8_EERKNSC_ISD_S9_EE,"axG",@progbits,_ZNSt6chronomiINS_3_V212system_clockENS_8durationIlSt5ratioILl1ELl1000000000EEEES6_EENSt11common_typeIJT0_T1_EE4typeERKNS_10time_pointIT_S8_EERKNSC_ISD_S9_EE,comdat
	.weak	_ZNSt6chronomiINS_3_V212system_clockENS_8durationIlSt5ratioILl1ELl1000000000EEEES6_EENSt11common_typeIJT0_T1_EE4typeERKNS_10time_pointIT_S8_EERKNSC_ISD_S9_EE
	.type	_ZNSt6chronomiINS_3_V212system_clockENS_8durationIlSt5ratioILl1ELl1000000000EEEES6_EENSt11common_typeIJT0_T1_EE4typeERKNS_10time_pointIT_S8_EERKNSC_ISD_S9_EE, @function
_ZNSt6chronomiINS_3_V212system_clockENS_8durationIlSt5ratioILl1ELl1000000000EEEES6_EENSt11common_typeIJT0_T1_EE4typeERKNS_10time_pointIT_S8_EERKNSC_ISD_S9_EE:
.LFB6395:
	.cfi_startproc
	pushq	%rbp
	.cfi_def_cfa_offset 16
	.cfi_offset 6, -16
	movq	%rsp, %rbp
	.cfi_def_cfa_register 6
	subq	$32, %rsp
	movq	%rdi, -24(%rbp)
	movq	%rsi, -32(%rbp)
	movq	-32(%rbp), %rax
	movq	%rax, %rdi
	call	_ZNKSt6chrono10time_pointINS_3_V212system_clockENS_8durationIlSt5ratioILl1ELl1000000000EEEEE16time_since_epochEv
	movq	%rax, -16(%rbp)
	movq	-24(%rbp), %rax
	movq	%rax, %rdi
	call	_ZNKSt6chrono10time_pointINS_3_V212system_clockENS_8durationIlSt5ratioILl1ELl1000000000EEEEE16time_since_epochEv
	movq	%rax, -8(%rbp)
	leaq	-16(%rbp), %rdx
	leaq	-8(%rbp), %rax
	movq	%rdx, %rsi
	movq	%rax, %rdi
	call	_ZNSt6chronomiIlSt5ratioILl1ELl1000000000EElS2_EENSt11common_typeIJNS_8durationIT_T0_EENS4_IT1_T2_EEEE4typeERKS7_RKSA_
	leave
	.cfi_def_cfa 7, 8
	ret
	.cfi_endproc
.LFE6395:
	.size	_ZNSt6chronomiINS_3_V212system_clockENS_8durationIlSt5ratioILl1ELl1000000000EEEES6_EENSt11common_typeIJT0_T1_EE4typeERKNS_10time_pointIT_S8_EERKNSC_ISD_S9_EE, .-_ZNSt6chronomiINS_3_V212system_clockENS_8durationIlSt5ratioILl1ELl1000000000EEEES6_EENSt11common_typeIJT0_T1_EE4typeERKNS_10time_pointIT_S8_EERKNSC_ISD_S9_EE
	.section	.text._ZNSt6chronomiIlSt5ratioILl1ELl1000000000EElS2_EENSt11common_typeIJNS_8durationIT_T0_EENS4_IT1_T2_EEEE4typeERKS7_RKSA_,"axG",@progbits,_ZNSt6chronomiIlSt5ratioILl1ELl1000000000EElS2_EENSt11common_typeIJNS_8durationIT_T0_EENS4_IT1_T2_EEEE4typeERKS7_RKSA_,comdat
	.weak	_ZNSt6chronomiIlSt5ratioILl1ELl1000000000EElS2_EENSt11common_typeIJNS_8durationIT_T0_EENS4_IT1_T2_EEEE4typeERKS7_RKSA_
	.type	_ZNSt6chronomiIlSt5ratioILl1ELl1000000000EElS2_EENSt11common_typeIJNS_8durationIT_T0_EENS4_IT1_T2_EEEE4typeERKS7_RKSA_, @function
_ZNSt6chronomiIlSt5ratioILl1ELl1000000000EElS2_EENSt11common_typeIJNS_8durationIT_T0_EENS4_IT1_T2_EEEE4typeERKS7_RKSA_:
.LFB6396:
	.cfi_startproc
	pushq	%rbp
	.cfi_def_cfa_offset 16
	.cfi_offset 6, -16
	movq	%rsp, %rbp
	.cfi_def_cfa_register 6
	pushq	%rbx
	subq	$56, %rsp
	.cfi_offset 3, -24
	movq	%rdi, -56(%rbp)
	movq	%rsi, -64(%rbp)
	movq	-56(%rbp), %rax
	movq	(%rax), %rax
	movq	%rax, -32(%rbp)
	leaq	-32(%rbp), %rax
	movq	%rax, %rdi
	call	_ZNKSt6chrono8durationIlSt5ratioILl1ELl1000000000EEE5countEv
	movq	%rax, %rbx
	movq	-64(%rbp), %rax
	movq	(%rax), %rax
	movq	%rax, -24(%rbp)
	leaq	-24(%rbp), %rax
	movq	%rax, %rdi
	call	_ZNKSt6chrono8durationIlSt5ratioILl1ELl1000000000EEE5countEv
	movq	%rax, %rdx
	movq	%rbx, %rax
	subq	%rdx, %rax
	movq	%rax, -40(%rbp)
	leaq	-40(%rbp), %rdx
	leaq	-48(%rbp), %rax
	movq	%rdx, %rsi
	movq	%rax, %rdi
	call	_ZNSt6chrono8durationIlSt5ratioILl1ELl1000000000EEEC1IlvEERKT_
	movq	-48(%rbp), %rax
	movq	-8(%rbp), %rbx
	leave
	.cfi_def_cfa 7, 8
	ret
	.cfi_endproc
.LFE6396:
	.size	_ZNSt6chronomiIlSt5ratioILl1ELl1000000000EElS2_EENSt11common_typeIJNS_8durationIT_T0_EENS4_IT1_T2_EEEE4typeERKS7_RKSA_, .-_ZNSt6chronomiIlSt5ratioILl1ELl1000000000EElS2_EENSt11common_typeIJNS_8durationIT_T0_EENS4_IT1_T2_EEEE4typeERKS7_RKSA_
	.section	.text._ZNKSt6chrono10time_pointINS_3_V212system_clockENS_8durationIlSt5ratioILl1ELl1000000000EEEEE16time_since_epochEv,"axG",@progbits,_ZNKSt6chrono10time_pointINS_3_V212system_clockENS_8durationIlSt5ratioILl1ELl1000000000EEEEE16time_since_epochEv,comdat
	.align 2
	.weak	_ZNKSt6chrono10time_pointINS_3_V212system_clockENS_8durationIlSt5ratioILl1ELl1000000000EEEEE16time_since_epochEv
	.type	_ZNKSt6chrono10time_pointINS_3_V212system_clockENS_8durationIlSt5ratioILl1ELl1000000000EEEEE16time_since_epochEv, @function
_ZNKSt6chrono10time_pointINS_3_V212system_clockENS_8durationIlSt5ratioILl1ELl1000000000EEEEE16time_since_epochEv:
.LFB6397:
	.cfi_startproc
	pushq	%rbp
	.cfi_def_cfa_offset 16
	.cfi_offset 6, -16
	movq	%rsp, %rbp
	.cfi_def_cfa_register 6
	movq	%rdi, -8(%rbp)
	movq	-8(%rbp), %rax
	movq	(%rax), %rax
	popq	%rbp
	.cfi_def_cfa 7, 8
	ret
	.cfi_endproc
.LFE6397:
	.size	_ZNKSt6chrono10time_pointINS_3_V212system_clockENS_8durationIlSt5ratioILl1ELl1000000000EEEEE16time_since_epochEv, .-_ZNKSt6chrono10time_pointINS_3_V212system_clockENS_8durationIlSt5ratioILl1ELl1000000000EEEEE16time_since_epochEv
	.section	.rodata
.LC1:
	.string	"Without AVX512:"
.LC2:
	.string	"y["
.LC3:
	.string	"] = "
.LC4:
	.string	"Runtime in nanoseconds: "
.LC5:
	.string	"With AVX512:"
.LC6:
	.string	"AVX512 Speedup: "
	.text
	.globl	main
	.type	main, @function
main:
.LFB6393:
	.cfi_startproc
	pushq	%rbp
	.cfi_def_cfa_offset 16
	.cfi_offset 6, -16
	movq	%rsp, %rbp
	.cfi_def_cfa_register 6
	subq	$4206672, %rsp
	leaq	-4202560(%rbp), %rdx
	movl	$0, %eax
	movl	$512, %ecx
	movq	%rdx, %rdi
	rep stosq
	leaq	-4206656(%rbp), %rdx
	movl	$0, %eax
	movl	$512, %ecx
	movq	%rdx, %rdi
	rep stosq
	movl	$0, -4(%rbp)
	jmp	.L32
.L35:
	movl	$0, -8(%rbp)
	jmp	.L33
.L34:
	movl	-4(%rbp), %edx
	movl	-8(%rbp), %eax
	addl	%edx, %eax
	vcvtsi2sdl	%eax, %xmm1, %xmm1
	vmovsd	.LC0(%rip), %xmm0
	vmulsd	%xmm0, %xmm1, %xmm0
	vcvtsd2ss	%xmm0, %xmm0, %xmm0
	movl	-8(%rbp), %eax
	movslq	%eax, %rdx
	movl	-4(%rbp), %eax
	cltq
	salq	$10, %rax
	addq	%rdx, %rax
	vmovss	%xmm0, -4194368(%rbp,%rax,4)
	addl	$1, -8(%rbp)
.L33:
	cmpl	$1023, -8(%rbp)
	jle	.L34
	addl	$1, -4(%rbp)
.L32:
	cmpl	$1023, -4(%rbp)
	jle	.L35
	movl	$0, -12(%rbp)
	jmp	.L36
.L37:
	vcvtsi2sdl	-12(%rbp), %xmm1, %xmm1
	vmovsd	.LC0(%rip), %xmm0
	vmulsd	%xmm0, %xmm1, %xmm0
	vcvtsd2ss	%xmm0, %xmm0, %xmm0
	movl	-12(%rbp), %eax
	cltq
	vmovss	%xmm0, -4198464(%rbp,%rax,4)
	addl	$1, -12(%rbp)
.L36:
	cmpl	$1023, -12(%rbp)
	jle	.L37
	call	_ZNSt6chrono3_V212system_clock3nowEv
	movq	%rax, -4206664(%rbp)
	leaq	-4202560(%rbp), %rdx
	leaq	-4198464(%rbp), %rsi
	leaq	-4194368(%rbp), %rax
	movl	$1024, %ecx
	movq	%rax, %rdi
	call	_Z13matrix_vectorPA1024_KfPS_Pfi
	call	_ZNSt6chrono3_V212system_clock3nowEv
	movq	%rax, -4206672(%rbp)
	leaq	-4206664(%rbp), %rdx
	leaq	-4206672(%rbp), %rax
	movq	%rdx, %rsi
	movq	%rax, %rdi
	call	_ZNSt6chronomiINS_3_V212system_clockENS_8durationIlSt5ratioILl1ELl1000000000EEEES6_EENSt11common_typeIJT0_T1_EE4typeERKNS_10time_pointIT_S8_EERKNSC_ISD_S9_EE
	movq	%rax, -56(%rbp)
	leaq	-56(%rbp), %rax
	movq	%rax, %rdi
	call	_ZNSt6chrono13duration_castINS_8durationIlSt5ratioILl1ELl1000000000EEEElS3_EENSt9enable_ifIXsrNS_13__is_durationIT_EE5valueES7_E4typeERKNS1_IT0_T1_EE
	movq	%rax, -64(%rbp)
	leaq	-64(%rbp), %rax
	movq	%rax, %rdi
	call	_ZNKSt6chrono8durationIlSt5ratioILl1ELl1000000000EEE5countEv
	movq	%rax, -24(%rbp)
	call	_ZNSt6chrono3_V212system_clock3nowEv
	movq	%rax, -4206664(%rbp)
	leaq	-4206656(%rbp), %rdx
	leaq	-4198464(%rbp), %rsi
	leaq	-4194368(%rbp), %rax
	movl	$1024, %ecx
	movq	%rax, %rdi
	call	_Z21matrix_vector_avx512fPA1024_KfPS_Pfi
	call	_ZNSt6chrono3_V212system_clock3nowEv
	movq	%rax, -4206672(%rbp)
	leaq	-4206664(%rbp), %rdx
	leaq	-4206672(%rbp), %rax
	movq	%rdx, %rsi
	movq	%rax, %rdi
	call	_ZNSt6chronomiINS_3_V212system_clockENS_8durationIlSt5ratioILl1ELl1000000000EEEES6_EENSt11common_typeIJT0_T1_EE4typeERKNS_10time_pointIT_S8_EERKNSC_ISD_S9_EE
	movq	%rax, -40(%rbp)
	leaq	-40(%rbp), %rax
	movq	%rax, %rdi
	call	_ZNSt6chrono13duration_castINS_8durationIlSt5ratioILl1ELl1000000000EEEElS3_EENSt9enable_ifIXsrNS_13__is_durationIT_EE5valueES7_E4typeERKNS1_IT0_T1_EE
	movq	%rax, -48(%rbp)
	leaq	-48(%rbp), %rax
	movq	%rax, %rdi
	call	_ZNKSt6chrono8durationIlSt5ratioILl1ELl1000000000EEE5countEv
	movq	%rax, -32(%rbp)
	movl	$.LC1, %esi
	movl	$_ZSt4cout, %edi
	call	_ZStlsISt11char_traitsIcEERSt13basic_ostreamIcT_ES5_PKc
	movl	$_ZSt4endlIcSt11char_traitsIcEERSt13basic_ostreamIT_T0_ES6_, %esi
	movq	%rax, %rdi
	call	_ZNSolsEPFRSoS_E
	movl	$.LC2, %esi
	movl	$_ZSt4cout, %edi
	call	_ZStlsISt11char_traitsIcEERSt13basic_ostreamIcT_ES5_PKc
	movl	$1023, %esi
	movq	%rax, %rdi
	call	_ZNSolsEi
	movl	$.LC3, %esi
	movq	%rax, %rdi
	call	_ZStlsISt11char_traitsIcEERSt13basic_ostreamIcT_ES5_PKc
	movq	%rax, %rdx
	movl	-4198468(%rbp), %eax
	vmovd	%eax, %xmm0
	movq	%rdx, %rdi
	call	_ZNSolsEf
	movl	$_ZSt4endlIcSt11char_traitsIcEERSt13basic_ostreamIT_T0_ES6_, %esi
	movq	%rax, %rdi
	call	_ZNSolsEPFRSoS_E
	movl	$.LC4, %esi
	movl	$_ZSt4cout, %edi
	call	_ZStlsISt11char_traitsIcEERSt13basic_ostreamIcT_ES5_PKc
	movq	%rax, %rdx
	movq	-24(%rbp), %rax
	movq	%rax, %rsi
	movq	%rdx, %rdi
	call	_ZNSolsEl
	movl	$_ZSt4endlIcSt11char_traitsIcEERSt13basic_ostreamIT_T0_ES6_, %esi
	movq	%rax, %rdi
	call	_ZNSolsEPFRSoS_E
	movl	$_ZSt4endlIcSt11char_traitsIcEERSt13basic_ostreamIT_T0_ES6_, %esi
	movq	%rax, %rdi
	call	_ZNSolsEPFRSoS_E
	movl	$.LC5, %esi
	movl	$_ZSt4cout, %edi
	call	_ZStlsISt11char_traitsIcEERSt13basic_ostreamIcT_ES5_PKc
	movl	$_ZSt4endlIcSt11char_traitsIcEERSt13basic_ostreamIT_T0_ES6_, %esi
	movq	%rax, %rdi
	call	_ZNSolsEPFRSoS_E
	movl	$.LC2, %esi
	movl	$_ZSt4cout, %edi
	call	_ZStlsISt11char_traitsIcEERSt13basic_ostreamIcT_ES5_PKc
	movl	$1023, %esi
	movq	%rax, %rdi
	call	_ZNSolsEi
	movl	$.LC3, %esi
	movq	%rax, %rdi
	call	_ZStlsISt11char_traitsIcEERSt13basic_ostreamIcT_ES5_PKc
	movq	%rax, %rdx
	movl	-4202564(%rbp), %eax
	vmovd	%eax, %xmm0
	movq	%rdx, %rdi
	call	_ZNSolsEf
	movl	$_ZSt4endlIcSt11char_traitsIcEERSt13basic_ostreamIT_T0_ES6_, %esi
	movq	%rax, %rdi
	call	_ZNSolsEPFRSoS_E
	movl	$.LC4, %esi
	movl	$_ZSt4cout, %edi
	call	_ZStlsISt11char_traitsIcEERSt13basic_ostreamIcT_ES5_PKc
	movq	%rax, %rdx
	movq	-32(%rbp), %rax
	movq	%rax, %rsi
	movq	%rdx, %rdi
	call	_ZNSolsEl
	movl	$_ZSt4endlIcSt11char_traitsIcEERSt13basic_ostreamIT_T0_ES6_, %esi
	movq	%rax, %rdi
	call	_ZNSolsEPFRSoS_E
	movl	$_ZSt4endlIcSt11char_traitsIcEERSt13basic_ostreamIT_T0_ES6_, %esi
	movq	%rax, %rdi
	call	_ZNSolsEPFRSoS_E
	movl	$.LC6, %esi
	movl	$_ZSt4cout, %edi
	call	_ZStlsISt11char_traitsIcEERSt13basic_ostreamIcT_ES5_PKc
	movq	%rax, %rdx
	vcvtsi2ssq	-24(%rbp), %xmm0, %xmm0
	vcvtsi2ssq	-32(%rbp), %xmm1, %xmm1
	vdivss	%xmm1, %xmm0, %xmm2
	vmovd	%xmm2, %eax
	vmovd	%eax, %xmm0
	movq	%rdx, %rdi
	call	_ZNSolsEf
	movl	$_ZSt4endlIcSt11char_traitsIcEERSt13basic_ostreamIT_T0_ES6_, %esi
	movq	%rax, %rdi
	call	_ZNSolsEPFRSoS_E
	movl	$0, %eax
	leave
	.cfi_def_cfa 7, 8
	ret
	.cfi_endproc
.LFE6393:
	.size	main, .-main
	.section	.text._ZNSt6chrono20__duration_cast_implINS_8durationIlSt5ratioILl1ELl1000000000EEEES2_ILl1ELl1EElLb1ELb1EE6__castIlS3_EES4_RKNS1_IT_T0_EE,"axG",@progbits,_ZNSt6chrono20__duration_cast_implINS_8durationIlSt5ratioILl1ELl1000000000EEEES2_ILl1ELl1EElLb1ELb1EE6__castIlS3_EES4_RKNS1_IT_T0_EE,comdat
	.weak	_ZNSt6chrono20__duration_cast_implINS_8durationIlSt5ratioILl1ELl1000000000EEEES2_ILl1ELl1EElLb1ELb1EE6__castIlS3_EES4_RKNS1_IT_T0_EE
	.type	_ZNSt6chrono20__duration_cast_implINS_8durationIlSt5ratioILl1ELl1000000000EEEES2_ILl1ELl1EElLb1ELb1EE6__castIlS3_EES4_RKNS1_IT_T0_EE, @function
_ZNSt6chrono20__duration_cast_implINS_8durationIlSt5ratioILl1ELl1000000000EEEES2_ILl1ELl1EElLb1ELb1EE6__castIlS3_EES4_RKNS1_IT_T0_EE:
.LFB6684:
	.cfi_startproc
	pushq	%rbp
	.cfi_def_cfa_offset 16
	.cfi_offset 6, -16
	movq	%rsp, %rbp
	.cfi_def_cfa_register 6
	subq	$32, %rsp
	movq	%rdi, -24(%rbp)
	movq	-24(%rbp), %rax
	movq	%rax, %rdi
	call	_ZNKSt6chrono8durationIlSt5ratioILl1ELl1000000000EEE5countEv
	movq	%rax, -8(%rbp)
	leaq	-8(%rbp), %rdx
	leaq	-16(%rbp), %rax
	movq	%rdx, %rsi
	movq	%rax, %rdi
	call	_ZNSt6chrono8durationIlSt5ratioILl1ELl1000000000EEEC1IlvEERKT_
	movq	-16(%rbp), %rax
	leave
	.cfi_def_cfa 7, 8
	ret
	.cfi_endproc
.LFE6684:
	.size	_ZNSt6chrono20__duration_cast_implINS_8durationIlSt5ratioILl1ELl1000000000EEEES2_ILl1ELl1EElLb1ELb1EE6__castIlS3_EES4_RKNS1_IT_T0_EE, .-_ZNSt6chrono20__duration_cast_implINS_8durationIlSt5ratioILl1ELl1000000000EEEES2_ILl1ELl1EElLb1ELb1EE6__castIlS3_EES4_RKNS1_IT_T0_EE
	.text
	.type	_Z41__static_initialization_and_destruction_0ii, @function
_Z41__static_initialization_and_destruction_0ii:
.LFB6945:
	.cfi_startproc
	pushq	%rbp
	.cfi_def_cfa_offset 16
	.cfi_offset 6, -16
	movq	%rsp, %rbp
	.cfi_def_cfa_register 6
	subq	$16, %rsp
	movl	%edi, -4(%rbp)
	movl	%esi, -8(%rbp)
	cmpl	$1, -4(%rbp)
	jne	.L43
	cmpl	$65535, -8(%rbp)
	jne	.L43
	movl	$_ZStL8__ioinit, %edi
	call	_ZNSt8ios_base4InitC1Ev
	movl	$__dso_handle, %edx
	movl	$_ZStL8__ioinit, %esi
	movl	$_ZNSt8ios_base4InitD1Ev, %edi
	call	__cxa_atexit
.L43:
	nop
	leave
	.cfi_def_cfa 7, 8
	ret
	.cfi_endproc
.LFE6945:
	.size	_Z41__static_initialization_and_destruction_0ii, .-_Z41__static_initialization_and_destruction_0ii
	.type	_GLOBAL__sub_I__Z13matrix_vectorPA1024_KfPS_Pfi, @function
_GLOBAL__sub_I__Z13matrix_vectorPA1024_KfPS_Pfi:
.LFB6946:
	.cfi_startproc
	pushq	%rbp
	.cfi_def_cfa_offset 16
	.cfi_offset 6, -16
	movq	%rsp, %rbp
	.cfi_def_cfa_register 6
	movl	$65535, %esi
	movl	$1, %edi
	call	_Z41__static_initialization_and_destruction_0ii
	popq	%rbp
	.cfi_def_cfa 7, 8
	ret
	.cfi_endproc
.LFE6946:
	.size	_GLOBAL__sub_I__Z13matrix_vectorPA1024_KfPS_Pfi, .-_GLOBAL__sub_I__Z13matrix_vectorPA1024_KfPS_Pfi
	.section	.init_array,"aw"
	.align 8
	.quad	_GLOBAL__sub_I__Z13matrix_vectorPA1024_KfPS_Pfi
	.section	.rodata
	.align 8
.LC0:
	.long	-1717986918
	.long	1069128089
	.hidden	__dso_handle
	.ident	"GCC: (GNU) 11.4.1 20230605 (Red Hat 11.4.1-2)"
	.section	.note.GNU-stack,"",@progbits
